target datalayout = "e-m:e-p270:32:32-p271:32:32-p272:64:64-i64:64-i128:128-f80:128-n8:16:32:64-S128"
target triple = "x86_64-pc-linux-gnu"

%class.NumberlikeArray = type { i32, i32, ptr }

@_ZTIPKc = external constant ptr
@.str.4 = private unnamed_addr constant [62 x i8] c"BigUnsigned::operator --(): Cannot decrement an unsigned zero\00", align 1

; Function Attrs: mustprogress uwtable
define void @_ZN11BigUnsignedmmEv(ptr noundef nonnull align 8 dereferenceable(16) %0) #0 align 2 {
  %2 = alloca ptr, align 8
  %3 = alloca i32, align 4
  %4 = alloca i8, align 1
  store ptr %0, ptr %2, align 8, !tbaa !6
  %5 = load ptr, ptr %2, align 8
  %6 = getelementptr inbounds nuw %class.NumberlikeArray, ptr %5, i32 0, i32 1
  %7 = load i32, ptr %6, align 4, !tbaa !19
  %8 = icmp eq i32 %7, 0
  br i1 %8, label %9, label %11

9:                                                ; preds = %1
  %10 = call ptr @__cxa_allocate_exception(i64 8) #7
  store ptr @.str.4, ptr %10, align 16, !tbaa !24
  call void @__cxa_throw(ptr %10, ptr @_ZTIPKc, ptr null) #9
  unreachable

11:                                               ; preds = %1
  call void @llvm.lifetime.start.p0(i64 4, ptr %3) #7
  call void @llvm.lifetime.start.p0(i64 1, ptr %4) #7
  store i8 1, ptr %4, align 1, !tbaa !32
  store i32 0, ptr %3, align 4, !tbaa !21
  br label %12

12:                                               ; preds = %31, %11
  %13 = load i8, ptr %4, align 1, !tbaa !32, !range !34, !noundef !35
  %14 = trunc i8 %13 to i1
  br i1 %14, label %15, label %34

15:                                               ; preds = %12
  %16 = getelementptr inbounds nuw %class.NumberlikeArray, ptr %5, i32 0, i32 2
  %17 = load ptr, ptr %16, align 8, !tbaa !20
  %18 = load i32, ptr %3, align 4, !tbaa !21
  %19 = zext i32 %18 to i64
  %20 = getelementptr inbounds nuw i64, ptr %17, i64 %19
  %21 = load i64, ptr %20, align 8, !tbaa !11
  %22 = icmp eq i64 %21, 0
  %23 = zext i1 %22 to i8
  store i8 %23, ptr %4, align 1, !tbaa !32
  %24 = getelementptr inbounds nuw %class.NumberlikeArray, ptr %5, i32 0, i32 2
  %25 = load ptr, ptr %24, align 8, !tbaa !20
  %26 = load i32, ptr %3, align 4, !tbaa !21
  %27 = zext i32 %26 to i64
  %28 = getelementptr inbounds nuw i64, ptr %25, i64 %27
  %29 = load i64, ptr %28, align 8, !tbaa !11
  %30 = add i64 %29, -1
  store i64 %30, ptr %28, align 8, !tbaa !11
  br label %31

31:                                               ; preds = %15
  %32 = load i32, ptr %3, align 4, !tbaa !21
  %33 = add i32 %32, 1
  store i32 %33, ptr %3, align 4, !tbaa !21
  br label %12, !llvm.loop !63

34:                                               ; preds = %12
  %35 = getelementptr inbounds nuw %class.NumberlikeArray, ptr %5, i32 0, i32 2
  %36 = load ptr, ptr %35, align 8, !tbaa !20
  %37 = getelementptr inbounds nuw %class.NumberlikeArray, ptr %5, i32 0, i32 1
  %38 = load i32, ptr %37, align 4, !tbaa !19
  %39 = sub i32 %38, 1
  %40 = zext i32 %39 to i64
  %41 = getelementptr inbounds nuw i64, ptr %36, i64 %40
  %42 = load i64, ptr %41, align 8, !tbaa !11
  %43 = icmp eq i64 %42, 0
  br i1 %43, label %44, label %48

44:                                               ; preds = %34
  %45 = getelementptr inbounds nuw %class.NumberlikeArray, ptr %5, i32 0, i32 1
  %46 = load i32, ptr %45, align 4, !tbaa !19
  %47 = add i32 %46, -1
  store i32 %47, ptr %45, align 4, !tbaa !19
  br label %48

48:                                               ; preds = %44, %34
  call void @llvm.lifetime.end.p0(i64 1, ptr %4) #7
  call void @llvm.lifetime.end.p0(i64 4, ptr %3) #7
  ret void
}

; Function Attrs: mustprogress uwtable
define void @_ZN11BigUnsignedmmEi(ptr noundef nonnull align 8 dereferenceable(16) %0, i32 noundef %1) #0 align 2 {
  %3 = alloca ptr, align 8
  %4 = alloca i32, align 4
  store ptr %0, ptr %3, align 8, !tbaa !6
  store i32 %1, ptr %4, align 4, !tbaa !21
  %5 = load ptr, ptr %3, align 8
  call void @_ZN11BigUnsignedmmEv(ptr noundef nonnull align 8 dereferenceable(16) %5)
  ret void
}