; Function Attrs: mustprogress uwtable
define void @_ZN11BigUnsignedmmEi(ptr noundef nonnull align 8 captures(none) dereferenceable(16) %0, i32 noundef %1) local_unnamed_addr #0 align 2 {
  %3 = getelementptr inbounds nuw i8, ptr %0, i64 4
  %4 = load i32, ptr %3, align 4, !tbaa !14
  %5 = icmp eq i32 %4, 0
  br i1 %5, label %8, label %.preheader.i

.preheader.i:                                     ; preds = %2
  %6 = getelementptr inbounds nuw i8, ptr %0, i64 8
  %7 = load ptr, ptr %6, align 8, !tbaa !13
  br label %10

8:                                                ; preds = %2
  %9 = tail call ptr @__cxa_allocate_exception(i64 8) #9
  store ptr @.str.4, ptr %9, align 16, !tbaa !17
  tail call void @__cxa_throw(ptr nonnull %9, ptr nonnull @_ZTIPKc, ptr null) #10
  unreachable

10:                                               ; preds = %10, %.preheader.i
  %.045.i = phi i32 [ 0, %.preheader.i ], [ %16, %10 ]
  %11 = zext i32 %.045.i to i64
  %12 = getelementptr inbounds nuw i64, ptr %7, i64 %11
  %13 = load i64, ptr %12, align 8, !tbaa !15
  %14 = icmp eq i64 %13, 0
  %15 = add i64 %13, -1
  store i64 %15, ptr %12, align 8, !tbaa !15
  %16 = add i32 %.045.i, 1
  br i1 %14, label %10, label %17, !llvm.loop !48

17:                                               ; preds = %10
  %18 = add i32 %4, -1
  %19 = zext i32 %18 to i64
  %20 = getelementptr inbounds nuw i64, ptr %7, i64 %19
  %21 = load i64, ptr %20, align 8, !tbaa !15
  %22 = icmp eq i64 %21, 0
  br i1 %22, label %23, label %_ZN11BigUnsignedmmEv.exit

23:                                               ; preds = %17
  store i32 %18, ptr %3, align 4, !tbaa !14
  br label %_ZN11BigUnsignedmmEv.exit

_ZN11BigUnsignedmmEv.exit:                        ; preds = %17, %23
  ret void
}